target datalayout = "e-m:e-p270:32:32-p271:32:32-p272:64:64-i64:64-i128:128-f80:128-n8:16:32:64-S128"
target triple = "x86_64-pc-linux-gnu"

%"class.llvm::Attribute" = type { ptr }

; Function Attrs: mustprogress nounwind uwtable
define internal noundef zeroext i1 @_ZL12setAllocKindRN4llvm8FunctionENS_11AllocFnKindE(ptr noundef nonnull align 8 dereferenceable(136) %0, i64 noundef %1) #1 {
  %3 = alloca i1, align 1
  %4 = alloca ptr, align 8
  %5 = alloca i64, align 8
  %6 = alloca %"class.llvm::Attribute", align 8
  store ptr %0, ptr %4, align 8
  store i64 %1, ptr %5, align 8
  %7 = load ptr, ptr %4, align 8
  %8 = call noundef zeroext i1 @_ZNK4llvm8Function14hasFnAttributeENS_9Attribute8AttrKindE(ptr noundef nonnull align 8 dereferenceable(136) %7, i32 noundef 83)
  br i1 %8, label %9, label %10

9:                                                ; preds = %2
  store i1 false, ptr %3, align 1
  br label %19

10:                                               ; preds = %2
  %11 = load ptr, ptr %4, align 8
  %12 = load ptr, ptr %4, align 8
  %13 = call noundef nonnull align 8 dereferenceable(8) ptr @_ZNK4llvm8Function10getContextEv(ptr noundef nonnull align 8 dereferenceable(136) %12)
  %14 = load i64, ptr %5, align 8
  %15 = call ptr @_ZN4llvm9Attribute3getERNS_11LLVMContextENS0_8AttrKindEm(ptr noundef nonnull align 8 dereferenceable(8) %13, i32 noundef 83, i64 noundef %14)
  %16 = getelementptr inbounds nuw %"class.llvm::Attribute", ptr %6, i32 0, i32 0
  store ptr %15, ptr %16, align 8
  %17 = getelementptr inbounds nuw %"class.llvm::Attribute", ptr %6, i32 0, i32 0
  %18 = load ptr, ptr %17, align 8
  call void @_ZN4llvm8Function9addFnAttrENS_9AttributeE(ptr noundef nonnull align 8 dereferenceable(136) %11, ptr %18)
  store i1 true, ptr %3, align 1
  br label %19

19:                                               ; preds = %10, %9
  %20 = load i1, ptr %3, align 1
  ret i1 %20
}