; Function Attrs: mustprogress nounwind uwtable
define internal fastcc noundef zeroext i1 @_ZL12setAllocKindRN4llvm8FunctionENS_11AllocFnKindE(ptr noundef nonnull align 8 dereferenceable(136) %0, i64 noundef %1) unnamed_addr #0 {
  %3 = tail call noundef zeroext i1 @_ZNK4llvm8Function14hasFnAttributeENS_9Attribute8AttrKindE(ptr noundef nonnull align 8 dereferenceable(136) %0, i32 noundef 83) #7
  br i1 %3, label %7, label %4

4:                                                ; preds = %2
  %5 = tail call noundef nonnull align 8 dereferenceable(8) ptr @_ZNK4llvm8Function10getContextEv(ptr noundef nonnull align 8 dereferenceable(136) %0) #7
  %6 = tail call ptr @_ZN4llvm9Attribute3getERNS_11LLVMContextENS0_8AttrKindEm(ptr noundef nonnull align 8 dereferenceable(8) %5, i32 noundef 83, i64 noundef %1) #7
  tail call void @_ZN4llvm8Function9addFnAttrENS_9AttributeE(ptr noundef nonnull align 8 dereferenceable(136) %0, ptr %6) #7
  br label %7

7:                                                ; preds = %2, %4
  %.0 = xor i1 %3, true
  ret i1 %.0
}